target datalayout = "e-m:e-p270:32:32-p271:32:32-p272:64:64-i64:64-i128:128-f80:128-n8:16:32:64-S128"
target triple = "x86_64-pc-linux-gnu"

%class.NativeCallStack = type { [4 x ptr] }
%class.ThreadCritical = type { i8 }

@_ZN10MemTracker15_tracking_levelE = external global i32, align 4

; Function Attrs: mustprogress nounwind uwtable
define linkonce_odr hidden noundef zeroext i1 @_ZN10MemTracker7enabledEv() #1 comdat align 2 {
  %1 = load i32, ptr @_ZN10MemTracker15_tracking_levelE, align 4
  %2 = icmp sgt i32 %1, 1
  ret i1 %2
}

; Function Attrs: mustprogress nounwind uwtable
define linkonce_odr hidden void @_ZN10MemTracker16assert_post_initEv() #1 comdat align 2 {
  ret void
}

; Function Attrs: mustprogress nounwind uwtable
define linkonce_odr hidden void @_ZN10MemTracker28record_virtual_memory_commitEPvmRK15NativeCallStack(ptr noundef %0, i64 noundef %1, ptr noundef nonnull align 8 dereferenceable(32) %2) #1 comdat align 2 {
  %4 = alloca ptr, align 8
  %5 = alloca i64, align 8
  %6 = alloca ptr, align 8
  %7 = alloca %class.ThreadCritical, align 1
  store ptr %0, ptr %4, align 8
  store i64 %1, ptr %5, align 8
  store ptr %2, ptr %6, align 8
  call void @_ZN10MemTracker16assert_post_initEv()
  %8 = call noundef zeroext i1 @_ZN10MemTracker7enabledEv()
  br i1 %8, label %10, label %9

9:                                                ; preds = %3
  br label %18

10:                                               ; preds = %3
  %11 = load ptr, ptr %4, align 8
  %12 = icmp ne ptr %11, null
  br i1 %12, label %13, label %18

13:                                               ; preds = %10
  call void @_ZN14ThreadCriticalC1Ev(ptr noundef nonnull align 1 dereferenceable(1) %7)
  %14 = load ptr, ptr %4, align 8
  %15 = load i64, ptr %5, align 8
  %16 = load ptr, ptr %6, align 8
  %17 = call noundef zeroext i1 @_ZN20VirtualMemoryTracker20add_committed_regionEPhmRK15NativeCallStack(ptr noundef %14, i64 noundef %15, ptr noundef nonnull align 8 dereferenceable(32) %16)
  call void @_ZN14ThreadCriticalD1Ev(ptr noundef nonnull align 1 dereferenceable(1) %7) #13
  br label %18

18:                                               ; preds = %13, %10, %9
  ret void
}

; Function Attrs: mustprogress nounwind uwtable
define linkonce_odr hidden void @_ZN15NativeCallStackC2ENS_10FakeMarkerE(ptr noundef nonnull align 8 dereferenceable(32) %0, i32 noundef %1) unnamed_addr #1 comdat align 2 {
  %3 = alloca ptr, align 8
  %4 = alloca i32, align 4
  store ptr %0, ptr %3, align 8
  store i32 %1, ptr %4, align 4
  ret void
}

; Function Attrs: mustprogress nounwind uwtable
define linkonce_odr hidden noundef i32 @_ZN10MemTracker14tracking_levelEv() #1 comdat align 2 {
  %1 = load i32, ptr @_ZN10MemTracker15_tracking_levelE, align 4
  ret i32 %1
}

; Function Attrs: mustprogress nounwind uwtable
define internal void @_ZL21assert_nonempty_rangePKcm(ptr noundef %0, i64 noundef %1) #1 {
  %3 = alloca ptr, align 8
  %4 = alloca i64, align 8
  store ptr %0, ptr %3, align 8
  store i64 %1, ptr %4, align 8
  ret void
}

; Function Attrs: mustprogress nounwind uwtable
define hidden void @_ZN2os21commit_memory_or_exitEPcmmbPKc(ptr noundef %0, i64 noundef %1, i64 noundef %2, i1 noundef zeroext %3, ptr noundef %4) #1 align 2 {
  %6 = alloca ptr, align 8
  %7 = alloca i64, align 8
  %8 = alloca i64, align 8
  %9 = alloca i8, align 1
  %10 = alloca ptr, align 8
  %11 = alloca %class.NativeCallStack, align 8
  store ptr %0, ptr %6, align 8
  store i64 %1, ptr %7, align 8
  store i64 %2, ptr %8, align 8
  %12 = zext i1 %3 to i8
  store i8 %12, ptr %9, align 1
  store ptr %4, ptr %10, align 8
  %13 = load ptr, ptr %6, align 8
  %14 = load i64, ptr %7, align 8
  call void @_ZL21assert_nonempty_rangePKcm(ptr noundef %13, i64 noundef %14)
  %15 = load ptr, ptr %6, align 8
  %16 = load i64, ptr %7, align 8
  %17 = load i64, ptr %8, align 8
  %18 = load i8, ptr %9, align 1
  %19 = trunc i8 %18 to i1
  %20 = load ptr, ptr %10, align 8
  call void @_ZN2os24pd_commit_memory_or_exitEPcmmbPKc(ptr noundef %15, i64 noundef %16, i64 noundef %17, i1 noundef zeroext %19, ptr noundef %20)
  %21 = load ptr, ptr %6, align 8
  %22 = load i64, ptr %7, align 8
  %23 = call noundef i32 @_ZN10MemTracker14tracking_levelEv()
  %24 = icmp eq i32 %23, 3
  br i1 %24, label %25, label %26

25:                                               ; preds = %5
  call void @_ZN15NativeCallStackC1Ei(ptr noundef nonnull align 8 dereferenceable(32) %11, i32 noundef 1)
  br label %27

26:                                               ; preds = %5
  call void @_ZN15NativeCallStackC2ENS_10FakeMarkerE(ptr noundef nonnull align 8 dereferenceable(32) %11, i32 noundef 0)
  br label %27

27:                                               ; preds = %26, %25
  call void @_ZN10MemTracker28record_virtual_memory_commitEPvmRK15NativeCallStack(ptr noundef %21, i64 noundef %22, ptr noundef nonnull align 8 dereferenceable(32) %11)
  ret void
}