; Function Attrs: mustprogress nounwind uwtable
define hidden void @_ZN2os21commit_memory_or_exitEPcmmbPKc(ptr noundef %0, i64 noundef %1, i64 noundef %2, i1 noundef zeroext %3, ptr noundef %4) local_unnamed_addr #3 align 2 {
  %6 = alloca %class.ThreadCritical, align 1
  %7 = alloca %class.NativeCallStack, align 8
  tail call void @_ZN2os24pd_commit_memory_or_exitEPcmmbPKc(ptr noundef %0, i64 noundef %1, i64 noundef %2, i1 noundef zeroext %3, ptr noundef %4) #28
  %8 = load i32, ptr @_ZN10MemTracker15_tracking_levelE, align 4
  %9 = icmp eq i32 %8, 3
  br i1 %9, label %10, label %11

10:                                               ; preds = %5
  call void @_ZN15NativeCallStackC1Ei(ptr noundef nonnull align 8 dereferenceable(32) %7, i32 noundef 1) #28
  %.pre = load i32, ptr @_ZN10MemTracker15_tracking_levelE, align 4
  br label %11

11:                                               ; preds = %5, %10
  %12 = phi i32 [ %8, %5 ], [ %.pre, %10 ]
  call void @llvm.lifetime.start.p0(i64 1, ptr nonnull %6)
  %13 = icmp sgt i32 %12, 1
  %14 = icmp ne ptr %0, null
  %or.cond.i = and i1 %14, %13
  br i1 %or.cond.i, label %15, label %_ZN10MemTracker28record_virtual_memory_commitEPvmRK15NativeCallStack.exit

15:                                               ; preds = %11
  call void @_ZN14ThreadCriticalC1Ev(ptr noundef nonnull align 1 dereferenceable(1) %6) #28
  %16 = call noundef zeroext i1 @_ZN20VirtualMemoryTracker20add_committed_regionEPhmRK15NativeCallStack(ptr noundef nonnull %0, i64 noundef %1, ptr noundef nonnull align 8 dereferenceable(32) %7) #28
  call void @_ZN14ThreadCriticalD1Ev(ptr noundef nonnull align 1 dereferenceable(1) %6) #28
  br label %_ZN10MemTracker28record_virtual_memory_commitEPvmRK15NativeCallStack.exit

_ZN10MemTracker28record_virtual_memory_commitEPvmRK15NativeCallStack.exit: ; preds = %11, %15
  call void @llvm.lifetime.end.p0(i64 1, ptr nonnull %6)
  ret void
}